; Function Attrs: nounwind uwtable
define range(i32 0, 2) i32 @SSL_SESSION_print_fp(ptr noundef %0, ptr noundef %1) local_unnamed_addr #0 {
  %3 = tail call ptr @BIO_s_file() #3
  %4 = tail call ptr @BIO_new(ptr noundef %3) #3
  %5 = icmp eq ptr %4, null
  br i1 %5, label %6, label %7

6:                                                ; preds = %2
  tail call void @ERR_new() #3
  tail call void @ERR_set_debug(ptr noundef nonnull @.str, i32 noundef 24, ptr noundef nonnull @__func__.SSL_SESSION_print_fp) #3
  tail call void (i32, i32, ptr, ...) @ERR_set_error(i32 noundef 20, i32 noundef 524295, ptr noundef null) #3
  br label %11

7:                                                ; preds = %2
  %8 = tail call i64 @BIO_ctrl(ptr noundef nonnull %4, i32 noundef 106, i64 noundef 0, ptr noundef %0) #3
  %9 = tail call i32 @SSL_SESSION_print(ptr noundef nonnull %4, ptr noundef %1)
  %10 = tail call i32 @BIO_free(ptr noundef nonnull %4) #3
  br label %11

11:                                               ; preds = %7, %6
  %.0 = phi i32 [ 0, %6 ], [ %9, %7 ]
  ret i32 %.0
}